; Function Attrs: mustprogress uwtable
define void @_ZN3net24CurrentSupportedVersionsEv(ptr dead_on_unwind noalias writable writeonly sret(%"class.std::vector") align 8 captures(none) %0) local_unnamed_addr #3 personality ptr @__gxx_personality_v0 {
  %2 = alloca %"class.std::vector", align 8
  call void @_ZN3net20AllSupportedVersionsEv(ptr dead_on_unwind nonnull writable sret(%"class.std::vector") align 8 %2)
  invoke void @_ZN3net23FilterSupportedVersionsESt6vectorINS_11QuicVersionESaIS1_EE(ptr dead_on_unwind writable sret(%"class.std::vector") align 8 %0, ptr noundef nonnull %2)
          to label %3 unwind label %6

3:                                                ; preds = %1
  %4 = load ptr, ptr %2, align 8, !tbaa !31
  %.not.i.i.i = icmp eq ptr %4, null
  br i1 %.not.i.i.i, label %_ZNSt6vectorIN3net11QuicVersionESaIS1_EED2Ev.exit, label %5

5:                                                ; preds = %3
  tail call void @_ZdlPv(ptr noundef nonnull %4) #29
  br label %_ZNSt6vectorIN3net11QuicVersionESaIS1_EED2Ev.exit

_ZNSt6vectorIN3net11QuicVersionESaIS1_EED2Ev.exit: ; preds = %3, %5
  ret void

6:                                                ; preds = %1
  %7 = landingpad { ptr, i32 }
          cleanup
  %8 = load ptr, ptr %2, align 8, !tbaa !31
  %.not.i.i.i1 = icmp eq ptr %8, null
  br i1 %.not.i.i.i1, label %_ZNSt6vectorIN3net11QuicVersionESaIS1_EED2Ev.exit2, label %9

9:                                                ; preds = %6
  tail call void @_ZdlPv(ptr noundef nonnull %8) #29
  br label %_ZNSt6vectorIN3net11QuicVersionESaIS1_EED2Ev.exit2

_ZNSt6vectorIN3net11QuicVersionESaIS1_EED2Ev.exit2: ; preds = %6, %9
  resume { ptr, i32 } %7
}